target datalayout = "e-m:e-p270:32:32-p271:32:32-p272:64:64-i64:64-i128:128-f80:128-n8:16:32:64-S128"
target triple = "x86_64-pc-linux-gnu"

%struct._e_prefs = type { ptr, i32, %struct.color_t, %struct.color_t, %struct.color_t, %struct.color_t, %struct.color_t, %struct.color_t, %struct.color_t, i8, i32, ptr, i32, %struct.color_t, %struct.color_t, i32, %struct.color_t, %struct.color_t, i32, %struct.color_t, %struct.color_t, %struct.color_t, %struct.color_t, ptr, ptr, i8, i8, i8, i32, i32, i32, ptr, i32, ptr, i8, i8, i8, ptr, ptr, ptr, i32, i32, i32, i32, i8, i32, i32, i32, i32, i32, ptr, i8, i8, i8, i8, i8, ptr, ptr, ptr, ptr, ptr, ptr, ptr, ptr, ptr, i8, i8, i8, i8, i32, i8, i8, i8, ptr, i32, i8, i8, i32, i8, i8, i8, i32, i8, i32, i8, i8, i8, i32, i32, i32, ptr, i8, i8, i8, i8, i8, i8, i32, i32, i8, i8, i8, i8, i32, i32, i32, i32, i8, i8, i32, i8, i8, i32, i32, i8, i8, i8, i32, i8, i8, i8 }
%struct.color_t = type { i16, i16, i16 }
%struct.preference = type { ptr, ptr, ptr, i32, i32, i32, %union.anon, %union.anon.0, %union.anon.1, %union.anon.2, %struct.pref_custom_cbs, ptr, ptr }
%union.anon = type { ptr }
%union.anon.0 = type { ptr }
%union.anon.1 = type { ptr }
%union.anon.2 = type { %struct.anon }
%struct.anon = type { ptr, i8 }
%struct.pref_custom_cbs = type { ptr, ptr, ptr, ptr, ptr, ptr, ptr }
%struct._GList = type { ptr, ptr, ptr }

@prefs = global %struct._e_prefs zeroinitializer, align 8
@num_capture_cols = internal global i32 7, align 4
@capture_cols = internal global [7 x ptr] [ptr @.str.532, ptr @.str.533, ptr @.str.534, ptr @.str.535, ptr @.str.536, ptr @.str.537, ptr @.str.538], align 16

; Function Attrs: null_pointer_is_valid sspstrong uwtable
define void @prefs_clear_string_list(ptr noundef %0) #1 {
  %2 = alloca ptr, align 8
  store ptr %0, ptr %2, align 8
  %3 = load ptr, ptr %2, align 8
  call void @g_list_free_full(ptr noundef %3, ptr noundef @g_free)
  ret void
}

; Function Attrs: null_pointer_is_valid sspstrong uwtable
define internal void @capture_column_free_cb(ptr noundef %0) #1 {
  %2 = alloca ptr, align 8
  store ptr %0, ptr %2, align 8
  %3 = load ptr, ptr getelementptr inbounds nuw (%struct._e_prefs, ptr @prefs, i32 0, i32 73), align 8
  call void @prefs_clear_string_list(ptr noundef %3)
  store ptr null, ptr getelementptr inbounds nuw (%struct._e_prefs, ptr @prefs, i32 0, i32 73), align 8
  %4 = load ptr, ptr %2, align 8
  %5 = getelementptr inbounds nuw %struct.preference, ptr %4, i32 0, i32 7
  %6 = load i8, ptr %5, align 8, !range !6, !noundef !7
  %7 = trunc i8 %6 to i1
  %8 = zext i1 %7 to i32
  %9 = icmp eq i32 %8, 1
  br i1 %9, label %10, label %16

10:                                               ; preds = %1
  %11 = load ptr, ptr %2, align 8
  %12 = getelementptr inbounds nuw %struct.preference, ptr %11, i32 0, i32 8
  %13 = load ptr, ptr %12, align 8
  call void @prefs_clear_string_list(ptr noundef %13)
  %14 = load ptr, ptr %2, align 8
  %15 = getelementptr inbounds nuw %struct.preference, ptr %14, i32 0, i32 8
  store ptr null, ptr %15, align 8
  br label %16

16:                                               ; preds = %10, %1
  ret void
}

; Function Attrs: null_pointer_is_valid sspstrong uwtable
define internal i32 @capture_column_set_cb(ptr noundef %0, ptr noundef %1, ptr noundef %2) #1 {
  %4 = alloca i32, align 4
  %5 = alloca ptr, align 8
  %6 = alloca ptr, align 8
  %7 = alloca ptr, align 8
  %8 = alloca ptr, align 8
  %9 = alloca ptr, align 8
  %10 = alloca ptr, align 8
  %11 = alloca i32, align 4
  %12 = alloca i32, align 4
  %13 = alloca i8, align 1
  store ptr %0, ptr %5, align 8
  store ptr %1, ptr %6, align 8
  store ptr %2, ptr %7, align 8
  call void @llvm.lifetime.start.p0(i64 8, ptr %8) #17
  %14 = load ptr, ptr %6, align 8
  %15 = call ptr @prefs_get_string_list(ptr noundef %14)
  store ptr %15, ptr %8, align 8
  call void @llvm.lifetime.start.p0(i64 8, ptr %9) #17
  call void @llvm.lifetime.start.p0(i64 8, ptr %10) #17
  call void @llvm.lifetime.start.p0(i64 4, ptr %11) #17
  %16 = load ptr, ptr %8, align 8
  %17 = icmp eq ptr %16, null
  br i1 %17, label %18, label %19

18:                                               ; preds = %3
  store i32 1, ptr %4, align 4
  store i32 1, ptr %12, align 4
  br label %122

19:                                               ; preds = %3
  %20 = load ptr, ptr %5, align 8
  call void @capture_column_free_cb(ptr noundef %20)
  %21 = load ptr, ptr %8, align 8
  %22 = call ptr @g_list_first(ptr noundef %21)
  store ptr %22, ptr %9, align 8
  %23 = load ptr, ptr %9, align 8
  %24 = getelementptr inbounds nuw %struct._GList, ptr %23, i32 0, i32 0
  %25 = load ptr, ptr %24, align 8
  %26 = load i8, ptr %25, align 1
  %27 = icmp ne i8 %26, 0
  br i1 %27, label %46, label %28

28:                                               ; preds = %19
  store i32 0, ptr %11, align 4
  br label %29

29:                                               ; preds = %42, %28
  %30 = load i32, ptr %11, align 4
  %31 = load i32, ptr @num_capture_cols, align 4
  %32 = icmp slt i32 %30, %31
  br i1 %32, label %33, label %45

33:                                               ; preds = %29
  %34 = load i32, ptr %11, align 4
  %35 = sext i32 %34 to i64
  %36 = getelementptr [7 x ptr], ptr @capture_cols, i64 0, i64 %35
  %37 = load ptr, ptr %36, align 8
  %38 = call noalias ptr @g_strdup(ptr noundef %37)
  store ptr %38, ptr %10, align 8
  %39 = load ptr, ptr getelementptr inbounds nuw (%struct._e_prefs, ptr @prefs, i32 0, i32 73), align 8
  %40 = load ptr, ptr %10, align 8
  %41 = call ptr @g_list_append(ptr noundef %39, ptr noundef %40)
  store ptr %41, ptr getelementptr inbounds nuw (%struct._e_prefs, ptr @prefs, i32 0, i32 73), align 8
  br label %42

42:                                               ; preds = %33
  %43 = load i32, ptr %11, align 4
  %44 = add i32 %43, 1
  store i32 %44, ptr %11, align 4
  br label %29, !llvm.loop !51

45:                                               ; preds = %29
  br label %46

46:                                               ; preds = %45, %19
  br label %47

47:                                               ; preds = %101, %46
  %48 = load ptr, ptr %9, align 8
  %49 = icmp ne ptr %48, null
  br i1 %49, label %50, label %102

50:                                               ; preds = %47
  call void @llvm.lifetime.start.p0(i64 1, ptr %13) #17
  store i8 0, ptr %13, align 1
  %51 = load ptr, ptr %9, align 8
  %52 = getelementptr inbounds nuw %struct._GList, ptr %51, i32 0, i32 0
  %53 = load ptr, ptr %52, align 8
  store ptr %53, ptr %10, align 8
  store i32 0, ptr %11, align 4
  br label %54

54:                                               ; preds = %68, %50
  %55 = load i32, ptr %11, align 4
  %56 = load i32, ptr @num_capture_cols, align 4
  %57 = icmp slt i32 %55, %56
  br i1 %57, label %58, label %71

58:                                               ; preds = %54
  %59 = load ptr, ptr %10, align 8
  %60 = load i32, ptr %11, align 4
  %61 = sext i32 %60 to i64
  %62 = getelementptr [7 x ptr], ptr @capture_cols, i64 0, i64 %61
  %63 = load ptr, ptr %62, align 8
  %64 = call i32 @strcmp(ptr noundef %59, ptr noundef %63) #22
  %65 = icmp eq i32 %64, 0
  br i1 %65, label %66, label %67

66:                                               ; preds = %58
  store i8 1, ptr %13, align 1
  br label %71

67:                                               ; preds = %58
  br label %68

68:                                               ; preds = %67
  %69 = load i32, ptr %11, align 4
  %70 = add i32 %69, 1
  store i32 %70, ptr %11, align 4
  br label %54, !llvm.loop !52

71:                                               ; preds = %66, %54
  %72 = load i8, ptr %13, align 1, !range !6, !noundef !7
  %73 = trunc i8 %72 to i1
  br i1 %73, label %95, label %74

74:                                               ; preds = %71
  store i32 0, ptr %11, align 4
  br label %75

75:                                               ; preds = %88, %74
  %76 = load i32, ptr %11, align 4
  %77 = load i32, ptr @num_capture_cols, align 4
  %78 = icmp slt i32 %76, %77
  br i1 %78, label %79, label %91

79:                                               ; preds = %75
  %80 = load i32, ptr %11, align 4
  %81 = sext i32 %80 to i64
  %82 = getelementptr [7 x ptr], ptr @capture_cols, i64 0, i64 %81
  %83 = load ptr, ptr %82, align 8
  %84 = call noalias ptr @g_strdup(ptr noundef %83)
  store ptr %84, ptr %10, align 8
  %85 = load ptr, ptr getelementptr inbounds nuw (%struct._e_prefs, ptr @prefs, i32 0, i32 73), align 8
  %86 = load ptr, ptr %10, align 8
  %87 = call ptr @g_list_append(ptr noundef %85, ptr noundef %86)
  store ptr %87, ptr getelementptr inbounds nuw (%struct._e_prefs, ptr @prefs, i32 0, i32 73), align 8
  br label %88

88:                                               ; preds = %79
  %89 = load i32, ptr %11, align 4
  %90 = add i32 %89, 1
  store i32 %90, ptr %11, align 4
  br label %75, !llvm.loop !53

91:                                               ; preds = %75
  %92 = load ptr, ptr %5, align 8
  %93 = getelementptr inbounds nuw %struct.preference, ptr %92, i32 0, i32 6
  store ptr getelementptr inbounds nuw (%struct._e_prefs, ptr @prefs, i32 0, i32 73), ptr %93, align 8
  %94 = load ptr, ptr %8, align 8
  call void @prefs_clear_string_list(ptr noundef %94)
  store i32 1, ptr %4, align 4
  store i32 1, ptr %12, align 4
  br label %99

95:                                               ; preds = %71
  %96 = load ptr, ptr %9, align 8
  %97 = getelementptr inbounds nuw %struct._GList, ptr %96, i32 0, i32 1
  %98 = load ptr, ptr %97, align 8
  store ptr %98, ptr %9, align 8
  store i32 0, ptr %12, align 4
  br label %99

99:                                               ; preds = %95, %91
  call void @llvm.lifetime.end.p0(i64 1, ptr %13) #17
  %100 = load i32, ptr %12, align 4
  switch i32 %100, label %122 [
    i32 0, label %101
  ]

101:                                              ; preds = %99
  br label %47, !llvm.loop !54

102:                                              ; preds = %47
  %103 = load ptr, ptr %8, align 8
  %104 = call ptr @g_list_first(ptr noundef %103)
  store ptr %104, ptr %9, align 8
  br label %105

105:                                              ; preds = %108, %102
  %106 = load ptr, ptr %9, align 8
  %107 = icmp ne ptr %106, null
  br i1 %107, label %108, label %118

108:                                              ; preds = %105
  %109 = load ptr, ptr %9, align 8
  %110 = getelementptr inbounds nuw %struct._GList, ptr %109, i32 0, i32 0
  %111 = load ptr, ptr %110, align 8
  store ptr %111, ptr %10, align 8
  %112 = load ptr, ptr getelementptr inbounds nuw (%struct._e_prefs, ptr @prefs, i32 0, i32 73), align 8
  %113 = load ptr, ptr %10, align 8
  %114 = call ptr @g_list_append(ptr noundef %112, ptr noundef %113)
  store ptr %114, ptr getelementptr inbounds nuw (%struct._e_prefs, ptr @prefs, i32 0, i32 73), align 8
  %115 = load ptr, ptr %9, align 8
  %116 = getelementptr inbounds nuw %struct._GList, ptr %115, i32 0, i32 1
  %117 = load ptr, ptr %116, align 8
  store ptr %117, ptr %9, align 8
  br label %105, !llvm.loop !55

118:                                              ; preds = %105
  %119 = load ptr, ptr %5, align 8
  %120 = getelementptr inbounds nuw %struct.preference, ptr %119, i32 0, i32 6
  store ptr getelementptr inbounds nuw (%struct._e_prefs, ptr @prefs, i32 0, i32 73), ptr %120, align 8
  %121 = load ptr, ptr %8, align 8
  call void @g_list_free(ptr noundef %121)
  store i32 0, ptr %4, align 4
  store i32 1, ptr %12, align 4
  br label %122

122:                                              ; preds = %118, %99, %18
  call void @llvm.lifetime.end.p0(i64 4, ptr %11) #17
  call void @llvm.lifetime.end.p0(i64 8, ptr %10) #17
  call void @llvm.lifetime.end.p0(i64 8, ptr %9) #17
  call void @llvm.lifetime.end.p0(i64 8, ptr %8) #17
  %123 = load i32, ptr %4, align 4
  ret i32 %123
}