; Function Attrs: null_pointer_is_valid sspstrong uwtable
define internal range(i32 0, 2) i32 @capture_column_set_cb(ptr noundef captures(none) %0, ptr noundef readonly captures(none) %1, ptr readnone captures(none) %2) #1 {
  %4 = tail call ptr @prefs_get_string_list(ptr noundef %1)
  %5 = icmp eq ptr %4, null
  br i1 %5, label %.loopexit, label %6

6:                                                ; preds = %3
  %7 = load ptr, ptr getelementptr inbounds nuw (i8, ptr @prefs, i64 368), align 8
  tail call void @g_list_free_full(ptr noundef %7, ptr noundef nonnull @g_free)
  store ptr null, ptr getelementptr inbounds nuw (i8, ptr @prefs, i64 368), align 8
  %8 = getelementptr inbounds nuw i8, ptr %0, i64 48
  %9 = load i8, ptr %8, align 8, !range !6, !noundef !7
  %10 = trunc nuw i8 %9 to i1
  br i1 %10, label %11, label %capture_column_free_cb.exit

11:                                               ; preds = %6
  %12 = getelementptr inbounds nuw i8, ptr %0, i64 56
  %13 = load ptr, ptr %12, align 8
  tail call void @g_list_free_full(ptr noundef %13, ptr noundef nonnull @g_free)
  store ptr null, ptr %12, align 8
  br label %capture_column_free_cb.exit

capture_column_free_cb.exit:                      ; preds = %6, %11
  %14 = tail call ptr @g_list_first(ptr noundef nonnull %4)
  %15 = load ptr, ptr %14, align 8
  %16 = load i8, ptr %15, align 1
  %.not = icmp eq i8 %16, 0
  br i1 %.not, label %.preheader, label %.loopexit42

.preheader:                                       ; preds = %capture_column_free_cb.exit, %.preheader
  %indvars.iv = phi i64 [ %indvars.iv.next, %.preheader ], [ 0, %capture_column_free_cb.exit ]
  %17 = getelementptr [7 x ptr], ptr @capture_cols, i64 0, i64 %indvars.iv
  %18 = load ptr, ptr %17, align 8
  %19 = tail call noalias ptr @g_strdup(ptr noundef %18)
  %20 = load ptr, ptr getelementptr inbounds nuw (i8, ptr @prefs, i64 368), align 8
  %21 = tail call ptr @g_list_append(ptr noundef %20, ptr noundef %19)
  store ptr %21, ptr getelementptr inbounds nuw (i8, ptr @prefs, i64 368), align 8
  %indvars.iv.next = add nuw nsw i64 %indvars.iv, 1
  %exitcond.not = icmp eq i64 %indvars.iv.next, 7
  br i1 %exitcond.not, label %.loopexit42, label %.preheader, !llvm.loop !55

.loopexit42:                                      ; preds = %.preheader, %capture_column_free_cb.exit
  %22 = getelementptr inbounds nuw i8, ptr %0, i64 40
  br label %23

23:                                               ; preds = %41, %.loopexit42
  %.033 = phi ptr [ %14, %.loopexit42 ], [ %.134, %41 ]
  %.not40 = icmp eq ptr %.033, null
  br i1 %.not40, label %42, label %24

24:                                               ; preds = %23
  %25 = load ptr, ptr %.033, align 8
  br label %27

26:                                               ; preds = %27
  %indvars.iv.next52 = add nuw nsw i64 %indvars.iv51, 1
  %exitcond54.not = icmp eq i64 %indvars.iv.next52, 7
  br i1 %exitcond54.not, label %.critedge, label %27, !llvm.loop !56

27:                                               ; preds = %24, %26
  %indvars.iv51 = phi i64 [ 0, %24 ], [ %indvars.iv.next52, %26 ]
  %28 = getelementptr [7 x ptr], ptr @capture_cols, i64 0, i64 %indvars.iv51
  %29 = load ptr, ptr %28, align 8
  %30 = tail call i32 @strcmp(ptr noundef %25, ptr noundef %29) #29
  %31 = icmp eq i32 %30, 0
  br i1 %31, label %38, label %26

.critedge:                                        ; preds = %26, %.critedge
  %indvars.iv55 = phi i64 [ %indvars.iv.next56, %.critedge ], [ 0, %26 ]
  %32 = getelementptr [7 x ptr], ptr @capture_cols, i64 0, i64 %indvars.iv55
  %33 = load ptr, ptr %32, align 8
  %34 = tail call noalias ptr @g_strdup(ptr noundef %33)
  %35 = load ptr, ptr getelementptr inbounds nuw (i8, ptr @prefs, i64 368), align 8
  %36 = tail call ptr @g_list_append(ptr noundef %35, ptr noundef %34)
  store ptr %36, ptr getelementptr inbounds nuw (i8, ptr @prefs, i64 368), align 8
  %indvars.iv.next56 = add nuw nsw i64 %indvars.iv55, 1
  %exitcond58.not = icmp eq i64 %indvars.iv.next56, 7
  br i1 %exitcond58.not, label %37, label %.critedge, !llvm.loop !57

37:                                               ; preds = %.critedge
  store ptr getelementptr inbounds nuw (i8, ptr @prefs, i64 368), ptr %22, align 8
  tail call void @g_list_free_full(ptr noundef nonnull %4, ptr noundef nonnull @g_free)
  br label %41

38:                                               ; preds = %27
  %39 = getelementptr inbounds nuw i8, ptr %.033, i64 8
  %40 = load ptr, ptr %39, align 8
  br label %41

41:                                               ; preds = %38, %37
  %.134 = phi ptr [ %40, %38 ], [ %.033, %37 ]
  br i1 %31, label %23, label %.loopexit, !llvm.loop !58

42:                                               ; preds = %23
  %43 = tail call ptr @g_list_first(ptr noundef nonnull %4)
  %.not4147 = icmp eq ptr %43, null
  br i1 %.not4147, label %._crit_edge, label %.lr.ph.preheader

.lr.ph.preheader:                                 ; preds = %42
  %.pre = load ptr, ptr getelementptr inbounds nuw (i8, ptr @prefs, i64 368), align 8
  br label %.lr.ph

.lr.ph:                                           ; preds = %.lr.ph.preheader, %.lr.ph
  %44 = phi ptr [ %46, %.lr.ph ], [ %.pre, %.lr.ph.preheader ]
  %.23548 = phi ptr [ %48, %.lr.ph ], [ %43, %.lr.ph.preheader ]
  %45 = load ptr, ptr %.23548, align 8
  %46 = tail call ptr @g_list_append(ptr noundef %44, ptr noundef %45)
  store ptr %46, ptr getelementptr inbounds nuw (i8, ptr @prefs, i64 368), align 8
  %47 = getelementptr inbounds nuw i8, ptr %.23548, i64 8
  %48 = load ptr, ptr %47, align 8
  %.not41 = icmp eq ptr %48, null
  br i1 %.not41, label %._crit_edge, label %.lr.ph, !llvm.loop !59

._crit_edge:                                      ; preds = %.lr.ph, %42
  store ptr getelementptr inbounds nuw (i8, ptr @prefs, i64 368), ptr %22, align 8
  tail call void @g_list_free(ptr noundef nonnull %4)
  br label %.loopexit

.loopexit:                                        ; preds = %41, %3, %._crit_edge
  %.036 = phi i32 [ 0, %._crit_edge ], [ 1, %3 ], [ 1, %41 ]
  ret i32 %.036
}